; Function Attrs: mustprogress uwtable
define hidden void @_ZN4lean12type_checker10infer_fvarERKNS_4exprE(ptr dead_on_unwind noalias writable writeonly sret(%"class.lean::expr") align 8 captures(none) %0, ptr noundef nonnull align 8 dereferenceable(48) %1, ptr noundef nonnull readonly align 8 captures(none) dereferenceable(8) %2) local_unnamed_addr #0 align 2 personality ptr @__gxx_personality_v0 {
  %4 = alloca %"class.lean::optional.38", align 8
  call void @llvm.lifetime.start.p0(i64 16, ptr nonnull %4) #19
  %5 = getelementptr inbounds nuw i8, ptr %1, i64 24
  %6 = load ptr, ptr %2, align 8, !tbaa !3, !noalias !86
  %7 = getelementptr inbounds nuw i8, ptr %6, i64 8
  call void @_ZNK4lean9local_ctx15find_local_declERKNS_4nameE(ptr dead_on_unwind nonnull writable sret(%"class.lean::optional.38") align 8 %4, ptr noundef nonnull align 8 dereferenceable(8) %5, ptr noundef nonnull align 8 dereferenceable(8) %7)
  %8 = load i8, ptr %4, align 8, !tbaa !89, !range !50, !noundef !51
  %9 = trunc nuw i8 %8 to i1
  br i1 %9, label %10, label %39

10:                                               ; preds = %3
  %11 = getelementptr inbounds nuw i8, ptr %4, i64 8
  %12 = load ptr, ptr %11, align 8, !tbaa !3
  %13 = getelementptr inbounds nuw i8, ptr %12, i64 32
  %14 = load ptr, ptr %13, align 8, !tbaa !3
  store ptr %14, ptr %0, align 8, !tbaa !3
  %15 = ptrtoint ptr %14 to i64
  %16 = and i64 %15, 1
  %.not.i.i.i = icmp eq i64 %16, 0
  br i1 %.not.i.i.i, label %17, label %_ZN4lean4exprC2ERKS0_.exit.thread

17:                                               ; preds = %10
  %.val.i.i.i.i = load i32, ptr %14, align 4, !tbaa !8
  %18 = icmp sgt i32 %.val.i.i.i.i, 0
  br i1 %18, label %19, label %21, !prof !11

19:                                               ; preds = %17
  %20 = add nuw nsw i32 %.val.i.i.i.i, 1
  store i32 %20, ptr %14, align 4, !tbaa !8
  br label %_ZN4lean4exprC2ERKS0_.exit.thread

21:                                               ; preds = %17
  %.not.i.i.i.i = icmp eq i32 %.val.i.i.i.i, 0
  br i1 %.not.i.i.i.i, label %_ZN4lean4exprC2ERKS0_.exit.thread, label %22

22:                                               ; preds = %21
  invoke void @lean_inc_ref_cold(ptr noundef nonnull %14)
          to label %_ZN4lean4exprC2ERKS0_.exit unwind label %37

_ZN4lean4exprC2ERKS0_.exit:                       ; preds = %22
  %.pre = load i8, ptr %4, align 8, !tbaa !89, !range !50
  %23 = trunc nuw i8 %.pre to i1
  br i1 %23, label %_ZN4lean4exprC2ERKS0_.exit.thread, label %_ZN4lean8optionalINS_10local_declEED2Ev.exit

_ZN4lean4exprC2ERKS0_.exit.thread:                ; preds = %10, %19, %21, %_ZN4lean4exprC2ERKS0_.exit
  %24 = load ptr, ptr %11, align 8, !tbaa !3
  %25 = ptrtoint ptr %24 to i64
  %26 = and i64 %25, 1
  %.not.i.i.i5 = icmp eq i64 %26, 0
  br i1 %.not.i.i.i5, label %27, label %_ZN4lean8optionalINS_10local_declEED2Ev.exit

27:                                               ; preds = %_ZN4lean4exprC2ERKS0_.exit.thread
  %28 = load i32, ptr %24, align 4, !tbaa !8
  %29 = icmp sgt i32 %28, 1
  br i1 %29, label %30, label %32, !prof !11

30:                                               ; preds = %27
  %31 = add nsw i32 %28, -1
  store i32 %31, ptr %24, align 4, !tbaa !8
  br label %_ZN4lean8optionalINS_10local_declEED2Ev.exit

32:                                               ; preds = %27
  %.not.i.i.i.i.i = icmp eq i32 %28, 0
  br i1 %.not.i.i.i.i.i, label %_ZN4lean8optionalINS_10local_declEED2Ev.exit, label %33

33:                                               ; preds = %32
  invoke void @lean_dec_ref_cold(ptr noundef nonnull %24)
          to label %_ZN4lean8optionalINS_10local_declEED2Ev.exit unwind label %34

34:                                               ; preds = %33
  %35 = landingpad { ptr, i32 }
          catch ptr null
  %36 = extractvalue { ptr, i32 } %35, 0
  call void @__clang_call_terminate(ptr %36) #21
  unreachable

_ZN4lean8optionalINS_10local_declEED2Ev.exit:     ; preds = %_ZN4lean4exprC2ERKS0_.exit, %_ZN4lean4exprC2ERKS0_.exit.thread, %30, %32, %33
  call void @llvm.lifetime.end.p0(i64 16, ptr nonnull %4) #19
  ret void

37:                                               ; preds = %22, %43
  %38 = landingpad { ptr, i32 }
          cleanup
  br label %46

39:                                               ; preds = %3
  %40 = call ptr @__cxa_allocate_exception(i64 48) #19
  %41 = getelementptr inbounds nuw i8, ptr %1, i64 8
  %42 = load ptr, ptr %41, align 8, !tbaa !31
  invoke void @_ZN4lean16kernel_exceptionC2ERKNS_11environmentEPKc(ptr noundef nonnull align 8 dereferenceable(48) %40, ptr noundef nonnull align 8 dereferenceable(8) %42, ptr noundef nonnull @.str.2)
          to label %43 unwind label %44

43:                                               ; preds = %39
  invoke void @__cxa_throw(ptr nonnull %40, ptr nonnull @_ZTIN4lean16kernel_exceptionE, ptr nonnull @_ZN4lean16kernel_exceptionD2Ev) #20
          to label %47 unwind label %37

44:                                               ; preds = %39
  %45 = landingpad { ptr, i32 }
          cleanup
  call void @__cxa_free_exception(ptr nonnull %40) #19
  br label %46

46:                                               ; preds = %44, %37
  %.pn = phi { ptr, i32 } [ %38, %37 ], [ %45, %44 ]
  call void @_ZN4lean8optionalINS_10local_declEED2Ev(ptr noundef nonnull align 8 dereferenceable(16) %4) #19
  call void @llvm.lifetime.end.p0(i64 16, ptr nonnull %4) #19
  resume { ptr, i32 } %.pn

47:                                               ; preds = %43
  unreachable
}